target datalayout = "e-m:e-p270:32:32-p271:32:32-p272:64:64-i64:64-i128:128-f80:128-n8:16:32:64-S128"
target triple = "x86_64-pc-linux-gnu"

%struct.expert_field = type { i32, i32 }
%struct.ext_value_string_t = type { i32, ptr, i32 }

@ansi_a_elem_1_strings = global ptr null, align 8
@.str.282 = private unnamed_addr constant [1 x i8] zeroinitializer, align 1
@ei_ansi_a_extraneous_data = internal global %struct.expert_field zeroinitializer, align 4
@ei_ansi_a_missing_mand_elem = internal global %struct.expert_field zeroinitializer, align 4
@.str.1753 = private unnamed_addr constant [71 x i8] c"Missing Mandatory element (0x%02x) %s%s, rest of dissection is suspect\00", align 1

; Function Attrs: null_pointer_is_valid sspstrong uwtable
define internal void @bsmap_status_resp(ptr noundef %0, ptr noundef %1, ptr noundef %2, i32 noundef %3, i32 noundef %4, ptr noundef %5) #1 {
  %7 = alloca ptr, align 8
  %8 = alloca ptr, align 8
  %9 = alloca ptr, align 8
  %10 = alloca i32, align 4
  %11 = alloca i32, align 4
  %12 = alloca ptr, align 8
  %13 = alloca i32, align 4
  %14 = alloca i32, align 4
  %15 = alloca i32, align 4
  %16 = alloca i32, align 4
  store ptr %0, ptr %7, align 8
  store ptr %1, ptr %8, align 8
  store ptr %2, ptr %9, align 8
  store i32 %3, ptr %10, align 4
  store i32 %4, ptr %11, align 4
  store ptr %5, ptr %12, align 8
  call void @llvm.lifetime.start.p0(i64 4, ptr %13) #8
  call void @llvm.lifetime.start.p0(i64 4, ptr %14) #8
  call void @llvm.lifetime.start.p0(i64 4, ptr %15) #8
  %17 = load i32, ptr %10, align 4
  store i32 %17, ptr %13, align 4
  %18 = load i32, ptr %11, align 4
  store i32 %18, ptr %15, align 4
  %19 = load ptr, ptr %7, align 8
  %20 = load ptr, ptr %8, align 8
  %21 = load ptr, ptr %9, align 8
  %22 = load i32, ptr %13, align 4
  %23 = load i32, ptr %15, align 4
  %24 = load ptr, ptr %12, align 8
  %25 = call zeroext i16 @elem_tlv(ptr noundef %19, ptr noundef %20, ptr noundef %21, i32 noundef 83, i32 noundef %22, i32 noundef %23, ptr noundef @.str.282, ptr noundef %24)
  %26 = zext i16 %25 to i32
  store i32 %26, ptr %14, align 4
  %27 = icmp ugt i32 %26, 0
  br i1 %27, label %28, label %35

28:                                               ; preds = %6
  %29 = load i32, ptr %14, align 4
  %30 = load i32, ptr %13, align 4
  %31 = add i32 %30, %29
  store i32 %31, ptr %13, align 4
  %32 = load i32, ptr %14, align 4
  %33 = load i32, ptr %15, align 4
  %34 = sub i32 %33, %32
  store i32 %34, ptr %15, align 4
  br label %49

35:                                               ; preds = %6
  %36 = load ptr, ptr %9, align 8
  %37 = load ptr, ptr %8, align 8
  %38 = load ptr, ptr %7, align 8
  %39 = load i32, ptr %13, align 4
  %40 = load ptr, ptr @ansi_a_elem_1_strings, align 8
  %41 = getelementptr %struct.ext_value_string_t, ptr %40, i64 83
  %42 = getelementptr inbounds nuw %struct.ext_value_string_t, ptr %41, i32 0, i32 0
  %43 = load i32, ptr %42, align 8
  %44 = load ptr, ptr @ansi_a_elem_1_strings, align 8
  %45 = getelementptr %struct.ext_value_string_t, ptr %44, i64 83
  %46 = getelementptr inbounds nuw %struct.ext_value_string_t, ptr %45, i32 0, i32 1
  %47 = load ptr, ptr %46, align 8
  %48 = call ptr (ptr, ptr, ptr, ptr, i32, i32, ptr, ...) @proto_tree_add_expert_format(ptr noundef %36, ptr noundef %37, ptr noundef @ei_ansi_a_missing_mand_elem, ptr noundef %38, i32 noundef %39, i32 noundef 0, ptr noundef @.str.1753, i32 noundef %43, ptr noundef %47, ptr noundef @.str.282)
  br label %49

49:                                               ; preds = %35, %28
  %50 = load i32, ptr %15, align 4
  %51 = icmp ule i32 %50, 0
  br i1 %51, label %52, label %53

52:                                               ; preds = %49
  store i32 1, ptr %16, align 4
  br label %152

53:                                               ; preds = %49
  %54 = load ptr, ptr %7, align 8
  %55 = load ptr, ptr %8, align 8
  %56 = load ptr, ptr %9, align 8
  %57 = load i32, ptr %13, align 4
  %58 = load i32, ptr %15, align 4
  %59 = load ptr, ptr %12, align 8
  %60 = call zeroext i16 @elem_tlv(ptr noundef %54, ptr noundef %55, ptr noundef %56, i32 noundef 47, i32 noundef %57, i32 noundef %58, ptr noundef @.str.282, ptr noundef %59)
  %61 = zext i16 %60 to i32
  store i32 %61, ptr %14, align 4
  %62 = icmp ugt i32 %61, 0
  br i1 %62, label %63, label %70

63:                                               ; preds = %53
  %64 = load i32, ptr %14, align 4
  %65 = load i32, ptr %13, align 4
  %66 = add i32 %65, %64
  store i32 %66, ptr %13, align 4
  %67 = load i32, ptr %14, align 4
  %68 = load i32, ptr %15, align 4
  %69 = sub i32 %68, %67
  store i32 %69, ptr %15, align 4
  br label %70

70:                                               ; preds = %63, %53
  %71 = load i32, ptr %15, align 4
  %72 = icmp ule i32 %71, 0
  br i1 %72, label %73, label %74

73:                                               ; preds = %70
  store i32 1, ptr %16, align 4
  br label %152

74:                                               ; preds = %70
  %75 = load ptr, ptr %7, align 8
  %76 = load ptr, ptr %8, align 8
  %77 = load ptr, ptr %9, align 8
  %78 = load i32, ptr %13, align 4
  %79 = load i32, ptr %15, align 4
  %80 = load ptr, ptr %12, align 8
  %81 = call zeroext i16 @elem_tlv(ptr noundef %75, ptr noundef %76, ptr noundef %77, i32 noundef 47, i32 noundef %78, i32 noundef %79, ptr noundef @.str.282, ptr noundef %80)
  %82 = zext i16 %81 to i32
  store i32 %82, ptr %14, align 4
  %83 = icmp ugt i32 %82, 0
  br i1 %83, label %84, label %91

84:                                               ; preds = %74
  %85 = load i32, ptr %14, align 4
  %86 = load i32, ptr %13, align 4
  %87 = add i32 %86, %85
  store i32 %87, ptr %13, align 4
  %88 = load i32, ptr %14, align 4
  %89 = load i32, ptr %15, align 4
  %90 = sub i32 %89, %88
  store i32 %90, ptr %15, align 4
  br label %91

91:                                               ; preds = %84, %74
  %92 = load i32, ptr %15, align 4
  %93 = icmp ule i32 %92, 0
  br i1 %93, label %94, label %95

94:                                               ; preds = %91
  store i32 1, ptr %16, align 4
  br label %152

95:                                               ; preds = %91
  %96 = load ptr, ptr %7, align 8
  %97 = load ptr, ptr %8, align 8
  %98 = load ptr, ptr %9, align 8
  %99 = load i32, ptr %13, align 4
  %100 = load i32, ptr %15, align 4
  %101 = load ptr, ptr %12, align 8
  %102 = call zeroext i16 @elem_tlv(ptr noundef %96, ptr noundef %97, ptr noundef %98, i32 noundef 47, i32 noundef %99, i32 noundef %100, ptr noundef @.str.282, ptr noundef %101)
  %103 = zext i16 %102 to i32
  store i32 %103, ptr %14, align 4
  %104 = icmp ugt i32 %103, 0
  br i1 %104, label %105, label %112

105:                                              ; preds = %95
  %106 = load i32, ptr %14, align 4
  %107 = load i32, ptr %13, align 4
  %108 = add i32 %107, %106
  store i32 %108, ptr %13, align 4
  %109 = load i32, ptr %14, align 4
  %110 = load i32, ptr %15, align 4
  %111 = sub i32 %110, %109
  store i32 %111, ptr %15, align 4
  br label %112

112:                                              ; preds = %105, %95
  %113 = load i32, ptr %15, align 4
  %114 = icmp ule i32 %113, 0
  br i1 %114, label %115, label %116

115:                                              ; preds = %112
  store i32 1, ptr %16, align 4
  br label %152

116:                                              ; preds = %112
  %117 = load ptr, ptr %7, align 8
  %118 = load ptr, ptr %8, align 8
  %119 = load ptr, ptr %9, align 8
  %120 = load i32, ptr %13, align 4
  %121 = load ptr, ptr %12, align 8
  %122 = call zeroext i16 @elem_tv(ptr noundef %117, ptr noundef %118, ptr noundef %119, i32 noundef 78, i32 noundef %120, ptr noundef @.str.282, ptr noundef %121)
  %123 = zext i16 %122 to i32
  store i32 %123, ptr %14, align 4
  %124 = icmp ugt i32 %123, 0
  br i1 %124, label %125, label %132

125:                                              ; preds = %116
  %126 = load i32, ptr %14, align 4
  %127 = load i32, ptr %13, align 4
  %128 = add i32 %127, %126
  store i32 %128, ptr %13, align 4
  %129 = load i32, ptr %14, align 4
  %130 = load i32, ptr %15, align 4
  %131 = sub i32 %130, %129
  store i32 %131, ptr %15, align 4
  br label %132

132:                                              ; preds = %125, %116
  %133 = load i32, ptr %15, align 4
  %134 = icmp ule i32 %133, 0
  br i1 %134, label %135, label %136

135:                                              ; preds = %132
  store i32 1, ptr %16, align 4
  br label %152

136:                                              ; preds = %132
  %137 = load i32, ptr %15, align 4
  %138 = icmp ugt i32 %137, 0
  br i1 %138, label %139, label %151

139:                                              ; preds = %136
  %140 = load ptr, ptr %9, align 8
  %141 = load ptr, ptr %8, align 8
  %142 = load ptr, ptr %7, align 8
  %143 = load i32, ptr %13, align 4
  %144 = load i32, ptr %15, align 4
  %145 = sub i32 %144, 0
  %146 = call ptr @proto_tree_add_expert(ptr noundef %140, ptr noundef %141, ptr noundef @ei_ansi_a_extraneous_data, ptr noundef %142, i32 noundef %143, i32 noundef %145)
  %147 = load i32, ptr %15, align 4
  %148 = sub i32 %147, 0
  %149 = load i32, ptr %13, align 4
  %150 = add i32 %149, %148
  store i32 %150, ptr %13, align 4
  br label %151

151:                                              ; preds = %139, %136
  store i32 0, ptr %16, align 4
  br label %152

152:                                              ; preds = %151, %135, %115, %94, %73, %52
  call void @llvm.lifetime.end.p0(i64 4, ptr %15) #8
  call void @llvm.lifetime.end.p0(i64 4, ptr %14) #8
  call void @llvm.lifetime.end.p0(i64 4, ptr %13) #8
  %153 = load i32, ptr %16, align 4
  switch i32 %153, label %155 [
    i32 0, label %154
    i32 1, label %154
  ]

154:                                              ; preds = %152, %152
  ret void

155:                                              ; preds = %152
  unreachable
}