; Function Attrs: null_pointer_is_valid sspstrong uwtable
define internal void @bsmap_status_resp(ptr noundef %0, ptr noundef %1, ptr noundef %2, i32 noundef %3, i32 noundef %4, ptr noundef %5) #1 {
  %7 = tail call fastcc zeroext i16 @elem_tlv(ptr noundef %0, ptr noundef %1, ptr noundef %2, i32 noundef 83, i32 noundef %3, ptr noundef nonnull @.str.282, ptr noundef %5)
  %.not = icmp eq i16 %7, 0
  br i1 %.not, label %12, label %8

8:                                                ; preds = %6
  %9 = zext i16 %7 to i32
  %10 = add i32 %3, %9
  %11 = sub i32 %4, %9
  br label %19

12:                                               ; preds = %6
  %13 = load ptr, ptr @ansi_a_elem_1_strings, align 8
  %14 = getelementptr i8, ptr %13, i64 1992
  %15 = load i32, ptr %14, align 8
  %16 = getelementptr i8, ptr %13, i64 2000
  %17 = load ptr, ptr %16, align 8
  %18 = tail call ptr (ptr, ptr, ptr, ptr, i32, i32, ptr, ...) @proto_tree_add_expert_format(ptr noundef %2, ptr noundef %1, ptr noundef nonnull @ei_ansi_a_missing_mand_elem, ptr noundef %0, i32 noundef %3, i32 noundef 0, ptr noundef nonnull @.str.1753, i32 noundef %15, ptr noundef %17, ptr noundef nonnull @.str.282)
  br label %19

19:                                               ; preds = %12, %8
  %.067 = phi i32 [ %10, %8 ], [ %3, %12 ]
  %.0 = phi i32 [ %11, %8 ], [ %4, %12 ]
  %20 = icmp eq i32 %.0, 0
  br i1 %20, label %47, label %21

21:                                               ; preds = %19
  %22 = tail call fastcc zeroext i16 @elem_tlv(ptr noundef %0, ptr noundef %1, ptr noundef %2, i32 noundef 47, i32 noundef %.067, ptr noundef nonnull @.str.282, ptr noundef %5)
  %23 = zext i16 %22 to i32
  %24 = icmp eq i32 %.0, %23
  br i1 %24, label %47, label %25

25:                                               ; preds = %21
  %26 = sub i32 %.0, %23
  %27 = add i32 %.067, %23
  %28 = tail call fastcc zeroext i16 @elem_tlv(ptr noundef %0, ptr noundef %1, ptr noundef %2, i32 noundef 47, i32 noundef %27, ptr noundef nonnull @.str.282, ptr noundef %5)
  %29 = zext i16 %28 to i32
  %30 = icmp eq i32 %26, %29
  br i1 %30, label %47, label %31

31:                                               ; preds = %25
  %32 = sub i32 %26, %29
  %33 = add i32 %27, %29
  %34 = tail call fastcc zeroext i16 @elem_tlv(ptr noundef %0, ptr noundef %1, ptr noundef %2, i32 noundef 47, i32 noundef %33, ptr noundef nonnull @.str.282, ptr noundef %5)
  %35 = zext i16 %34 to i32
  %36 = icmp eq i32 %32, %35
  br i1 %36, label %47, label %37

37:                                               ; preds = %31
  %38 = add i32 %33, %35
  %39 = tail call fastcc zeroext i16 @elem_tv(ptr noundef %0, ptr noundef %1, ptr noundef %2, i32 noundef 78, i32 noundef %38, ptr noundef %5)
  %40 = zext i16 %39 to i32
  %41 = add nuw nsw i32 %40, %35
  %42 = icmp eq i32 %32, %41
  br i1 %42, label %47, label %43

43:                                               ; preds = %37
  %44 = sub i32 %32, %41
  %45 = add i32 %38, %40
  %46 = tail call ptr @proto_tree_add_expert(ptr noundef %2, ptr noundef %1, ptr noundef nonnull @ei_ansi_a_extraneous_data, ptr noundef %0, i32 noundef %45, i32 noundef %44)
  br label %47

47:                                               ; preds = %37, %31, %25, %21, %19, %43
  ret void
}